; Function Attrs: inlinehint mustprogress nounwind uwtable
define internal void @"_ZNSt6thread11_State_implINS_8_InvokerISt5tupleIJZZZ24test_submodule_callbacksRN8pybind117module_EENK4$_24clERKSt8functionIFviEERKNS3_4listEENKUliE_clEiEUlvE_EEEEED2Ev"(ptr noundef nonnull align 8 dereferenceable(48) initializes((0, 8)) %0) unnamed_addr #0 align 2 personality ptr @__gxx_personality_v0 {
  store ptr getelementptr inbounds nuw inrange(-16, 24) (i8, ptr @"_ZTVNSt6thread11_State_implINS_8_InvokerISt5tupleIJZZZ24test_submodule_callbacksRN8pybind117module_EENK4$_24clERKSt8functionIFviEERKNS3_4listEENKUliE_clEiEUlvE_EEEEEE", i64 16), ptr %0, align 8, !tbaa !444
  %2 = getelementptr inbounds nuw i8, ptr %0, i64 24
  %3 = load ptr, ptr %2, align 8, !tbaa !342
  %.not.i.i.i.i = icmp eq ptr %3, null
  br i1 %.not.i.i.i.i, label %"_ZNSt6thread8_InvokerISt5tupleIJZZZ24test_submodule_callbacksRN8pybind117module_EENK4$_24clERKSt8functionIFviEERKNS2_4listEENKUliE_clEiEUlvE_EEED2Ev.exit", label %4

4:                                                ; preds = %1
  %5 = getelementptr inbounds nuw i8, ptr %0, i64 8
  %6 = invoke noundef zeroext i1 %3(ptr noundef nonnull align 8 dereferenceable(40) %5, ptr noundef nonnull align 8 dereferenceable(40) %5, i32 noundef 3)
          to label %"_ZNSt6thread8_InvokerISt5tupleIJZZZ24test_submodule_callbacksRN8pybind117module_EENK4$_24clERKSt8functionIFviEERKNS2_4listEENKUliE_clEiEUlvE_EEED2Ev.exit" unwind label %7

7:                                                ; preds = %4
  %8 = landingpad { ptr, i32 }
          catch ptr null
  %9 = extractvalue { ptr, i32 } %8, 0
  tail call void @__clang_call_terminate(ptr %9) #39
  unreachable

"_ZNSt6thread8_InvokerISt5tupleIJZZZ24test_submodule_callbacksRN8pybind117module_EENK4$_24clERKSt8functionIFviEERKNS2_4listEENKUliE_clEiEUlvE_EEED2Ev.exit": ; preds = %1, %4
  tail call void @_ZNSt6thread6_StateD2Ev(ptr noundef nonnull align 8 dereferenceable(8) %0) #38
  ret void
}